; Function Attrs: mustprogress nounwind uwtable
define dso_local { ptr, i64 } @_ZNK4llvm22ConstantDataSequential16getRawDataValuesEv(ptr nocapture noundef nonnull readonly align 8 dereferenceable(40) %0) local_unnamed_addr #0 align 2 {
  %2 = alloca %"class.llvm::TypeSize", align 8
  %3 = getelementptr inbounds nuw i8, ptr %0, i64 24
  %4 = load ptr, ptr %3, align 8
  %5 = getelementptr inbounds nuw i8, ptr %0, i64 8
  %6 = load ptr, ptr %5, align 8
  %7 = getelementptr inbounds nuw i8, ptr %6, i64 8
  %8 = load i32, ptr %7, align 8
  %9 = and i32 %8, 255
  %10 = icmp ne i32 %9, 16
  %.not4.i = icmp eq ptr %6, null
  %.not.i = or i1 %.not4.i, %10
  %11 = getelementptr inbounds nuw i8, ptr %6, i64 32
  br i1 %.not.i, label %15, label %12

12:                                               ; preds = %1
  %13 = load i64, ptr %11, align 8
  %14 = trunc i64 %13 to i32
  br label %_ZNK4llvm22ConstantDataSequential14getNumElementsEv.exit

15:                                               ; preds = %1
  %16 = load i32, ptr %11, align 8
  br label %_ZNK4llvm22ConstantDataSequential14getNumElementsEv.exit

_ZNK4llvm22ConstantDataSequential14getNumElementsEv.exit: ; preds = %12, %15
  %.0.i = phi i32 [ %14, %12 ], [ %16, %15 ]
  %17 = zext i32 %.0.i to i64
  call void @llvm.lifetime.start.p0(i64 16, ptr nonnull %2)
  %.0.in.i.i = getelementptr inbounds nuw i8, ptr %6, i64 24
  %.0.i.i = load ptr, ptr %.0.in.i.i, align 8
  %18 = tail call { i64, i8 } @_ZNK4llvm4Type22getPrimitiveSizeInBitsEv(ptr noundef nonnull align 8 dereferenceable(24) %.0.i.i) #30
  %.fca.0.extract.i = extractvalue { i64, i8 } %18, 0
  %.fca.1.extract.i = extractvalue { i64, i8 } %18, 1
  store i64 %.fca.0.extract.i, ptr %2, align 8
  %.sroa.2.0..sroa_idx.i = getelementptr inbounds i8, ptr %2, i64 8
  store i8 %.fca.1.extract.i, ptr %.sroa.2.0..sroa_idx.i, align 8
  %19 = call noundef i64 @_ZNK4llvm8TypeSizecvmEv(ptr noundef nonnull align 8 dereferenceable(9) %2) #28
  %20 = lshr i64 %19, 3
  call void @llvm.lifetime.end.p0(i64 16, ptr nonnull %2)
  %21 = mul i64 %20, %17
  %.fca.0.insert = insertvalue { ptr, i64 } poison, ptr %4, 0
  %.fca.1.insert = insertvalue { ptr, i64 } %.fca.0.insert, i64 %21, 1
  ret { ptr, i64 } %.fca.1.insert
}